Certificate:
    Data:
        Version: 3 (0x2)
        Serial Number:
            fc:4e:e3:43:7c:f6:9d:da
        Signature Algorithm: sha1WithRSAEncryption
        Issuer: C=US, ST=Florida, O=Internet Widgits Pty Ltd, CN=ca.local
        Validity
            Not Before: Jan 16 05:34:40 2014 GMT
            Not After : Jan 15 05:34:40 2017 GMT
        Subject: C=US, ST=Florida, O=Internet Widgits Pty Ltd, CN=ca.local
        Subject Public Key Info:
            Public Key Algorithm: rsaEncryption
            RSA Public Key: (1024 bit)
                Modulus (1024 bit):
                    00:cd:97:15:9c:8f:8b:69:fe:32:f3:7e:5f:76:e3:
                    ef:b7:d1:17:08:4e:7c:39:59:f2:8c:98:fc:c8:79:
                    f3:49:e0:9f:e8:fb:74:87:b1:68:d4:13:a6:3c:77:
                    64:93:5b:e3:3f:48:99:d2:01:94:50:94:21:9e:8d:
                    39:ec:b9:68:a2:d8:a1:4a:1a:b1:cf:ca:67:37:0d:
                    ff:67:84:a9:40:39:43:4e:24:17:97:d1:3a:25:17:
                    ff:32:3e:1e:1a:bf:00:f7:2b:1c:ef:2c:9b:35:96:
                    ee:c8:d6:82:54:77:f6:88:0f:9e:62:8f:ac:7d:9a:
                    81:87:7c:8c:9a:07:8d:f0:5b
                Exponent: 65537 (0x10001)
        X509v3 extensions:
            X509v3 Subject Key Identifier: 
                78:81:94:51:E7:72:21:2E:F2:9B:0D:73:02:39:31:FE:9C:E3:FF:3D
            X509v3 Authority Key Identifier: 
                keyid:78:81:94:51:E7:72:21:2E:F2:9B:0D:73:02:39:31:FE:9C:E3:FF:3D
                DirName:/C=US/ST=Florida/O=Internet Widgits Pty Ltd/CN=ca.local
                serial:FC:4E:E3:43:7C:F6:9D:DA

            X509v3 Basic Constraints: 
                CA:TRUE
    Signature Algorithm: sha1WithRSAEncryption
        bd:79:9f:ce:0f:f9:fe:88:4c:4b:9b:15:3e:1f:ff:d3:36:eb:
        32:12:e0:b9:d8:03:4a:bd:a9:c6:75:5e:90:19:b2:6d:b6:93:
        97:4c:27:ce:99:fb:79:72:a5:b4:d3:b9:e2:73:c9:ad:90:99:
        84:82:fd:6c:4f:e8:54:60:a8:be:38:9f:17:62:f2:1c:73:fe:
        6d:6a:ab:08:81:b2:d6:a5:f4:f0:51:f3:9f:bf:1c:3e:cc:77:
        ab:60:91:05:81:80:2a:6c:12:95:15:4d:6a:8b:49:16:e3:55:
        9c:36:90:59:bc:f1:43:06:99:69:a3:52:8a:1f:b0:7c:53:02:
        27:18
-----BEGIN CERTIFICATE-----
MIIC4TCCAkqgAwIBAgIJAPxO40N89p3aMA0GCSqGSIb3DQEBBQUAMFUxCzAJBgNV
BAYTAlVTMRAwDgYDVQQIEwdGbG9yaWRhMSEwHwYDVQQKExhJbnRlcm5ldCBXaWRn
aXRzIFB0eSBMdGQxETAPBgNVBAMTCGNhLmxvY2FsMB4XDTE0MDExNjA1MzQ0MFoX
DTE3MDExNTA1MzQ0MFowVTELMAkGA1UEBhMCVVMxEDAOBgNVBAgTB0Zsb3JpZGEx
ITAfBgNVBAoTGEludGVybmV0IFdpZGdpdHMgUHR5IEx0ZDERMA8GA1UEAxMIY2Eu
bG9jYWwwgZ8wDQYJKoZIhvcNAQEBBQADgY0AMIGJAoGBAM2XFZyPi2n+MvN+X3bj
77fRFwhOfDlZ8oyY/Mh580ngn+j7dIexaNQTpjx3ZJNb4z9ImdIBlFCUIZ6NOey5
aKLYoUoasc/KZzcN/2eEqUA5Q04kF5fROiUX/zI+Hhq/APcrHO8smzWW7sjWglR3
9ogPnmKPrH2agYd8jJoHjfBbAgMBAAGjgbgwgbUwHQYDVR0OBBYEFHiBlFHnciEu
8psNcwI5Mf6c4/89MIGFBgNVHSMEfjB8gBR4gZRR53IhLvKbDXMCOTH+nOP/PaFZ
pFcwVTELMAkGA1UEBhMCVVMxEDAOBgNVBAgTB0Zsb3JpZGExITAfBgNVBAoTGElu
dGVybmV0IFdpZGdpdHMgUHR5IEx0ZDERMA8GA1UEAxMIY2EubG9jYWyCCQD8TuND
fPad2jAMBgNVHRMEBTADAQH/MA0GCSqGSIb3DQEBBQUAA4GBAL15n84P+f6ITEub
FT4f/9M26zIS4LnYA0q9qcZ1XpAZsm22k5dMJ86Z+3lypbTTueJzya2QmYSC/WxP
6FRgqL44nxdi8hxz/m1qqwiBstal9PBR85+/HD7Md6tgkQWBgCpsEpUVTWqLSRbj
VZw2kFm88UMGmWmjUoofsHxTAicY
-----END CERTIFICATE-----
