Certificate:
    Data:
        Version: 3 (0x2)
        Serial Number:
            fc:4e:e3:43:7c:f6:9d:db
        Signature Algorithm: sha1WithRSAEncryption
        Issuer: C=US, ST=Florida, O=Internet Widgits Pty Ltd, CN=ca.local
        Validity
            Not Before: Jan 16 05:36:23 2014 GMT
            Not After : Jan 16 05:36:23 2015 GMT
        Subject: C=US, ST=Florida, O=Internet Widgits Pty Ltd, CN=etcd.local
        Subject Public Key Info:
            Public Key Algorithm: rsaEncryption
            RSA Public Key: (2048 bit)
                Modulus (2048 bit):
                    00:be:b4:84:5c:cc:cd:da:49:f2:61:e4:eb:5c:c5:
                    93:93:dd:5b:e7:b9:56:6d:18:98:fe:4a:46:e7:a8:
                    12:33:bb:a1:7d:11:d2:23:90:a0:f8:bf:ec:c0:0b:
                    15:6d:d1:d7:e5:1b:5b:cf:d1:60:51:3c:30:00:c8:
                    9e:0d:88:d3:e7:07:11:63:de:f7:9b:32:48:c9:e8:
                    53:42:8f:27:29:11:fa:71:e3:84:5b:df:f3:0a:5a:
                    67:42:f6:44:84:4e:9b:0a:41:2f:7a:bd:c0:19:34:
                    9d:50:28:a7:15:61:cc:cd:5a:e2:99:ee:7e:87:a5:
                    36:f0:98:56:e4:4f:09:db:3c:29:fc:dd:b0:e9:b2:
                    02:5e:4e:f9:7d:e7:fc:dc:4b:cb:9b:29:38:2e:33:
                    71:22:7c:4b:19:cc:ef:ec:be:52:e2:22:6a:4f:ea:
                    24:ac:13:9a:4c:4f:11:45:ed:05:e2:ea:9e:6c:0c:
                    5e:6e:5f:3b:62:f9:31:86:f5:57:4d:b9:ae:03:72:
                    6e:5c:81:58:86:c9:b3:74:27:4b:e3:4f:7f:5b:0d:
                    c4:a2:d2:65:3d:59:af:f8:c6:5d:b0:a7:32:de:18:
                    dc:5e:c5:9d:ef:7d:5a:08:c8:31:bd:b5:ee:84:db:
                    4a:91:ab:fd:82:b3:5b:96:41:54:6d:7b:47:09:c9:
                    9b:c9
                Exponent: 65537 (0x10001)
        X509v3 extensions:
            X509v3 Extended Key Usage: 
                TLS Web Client Authentication
    Signature Algorithm: sha1WithRSAEncryption
        7e:e1:db:11:e3:de:8e:7b:a1:f1:ed:28:02:81:f7:50:1e:0e:
        9b:a2:a2:8d:ba:fe:58:47:4e:5c:45:f4:e8:27:ab:38:2d:5d:
        8a:f7:2e:fd:b9:b4:00:5e:61:48:fe:cc:62:5f:87:8c:a8:6f:
        c2:b6:54:61:53:db:75:e1:08:44:fd:8a:df:24:f7:7f:62:2f:
        e5:33:6b:4e:fc:06:3e:6d:49:95:18:b0:82:fc:82:75:6f:69:
        8f:d4:18:c8:11:e3:5f:9b:d3:19:a5:a2:d5:c4:ca:c6:79:15:
        c8:ce:4b:89:d2:4c:56:70:ba:16:cb:a8:a8:8c:3c:a7:f3:4a:
        03:63
-----BEGIN CERTIFICATE-----
MIICxTCCAi6gAwIBAgIJAPxO40N89p3bMA0GCSqGSIb3DQEBBQUAMFUxCzAJBgNV
BAYTAlVTMRAwDgYDVQQIEwdGbG9yaWRhMSEwHwYDVQQKExhJbnRlcm5ldCBXaWRn
aXRzIFB0eSBMdGQxETAPBgNVBAMTCGNhLmxvY2FsMB4XDTE0MDExNjA1MzYyM1oX
DTE1MDExNjA1MzYyM1owVzELMAkGA1UEBhMCVVMxEDAOBgNVBAgTB0Zsb3JpZGEx
ITAfBgNVBAoTGEludGVybmV0IFdpZGdpdHMgUHR5IEx0ZDETMBEGA1UEAxMKZXRj
ZC5sb2NhbDCCASIwDQYJKoZIhvcNAQEBBQADggEPADCCAQoCggEBAL60hFzMzdpJ
8mHk61zFk5PdW+e5Vm0YmP5KRueoEjO7oX0R0iOQoPi/7MALFW3R1+UbW8/RYFE8
MADIng2I0+cHEWPe95sySMnoU0KPJykR+nHjhFvf8wpaZ0L2RIROmwpBL3q9wBk0
nVAopxVhzM1a4pnufoelNvCYVuRPCds8KfzdsOmyAl5O+X3n/NxLy5spOC4zcSJ8
SxnM7+y+UuIiak/qJKwTmkxPEUXtBeLqnmwMXm5fO2L5MYb1V025rgNyblyBWIbJ
s3QnS+NPf1sNxKLSZT1Zr/jGXbCnMt4Y3F7Fne99WgjIMb217oTbSpGr/YKzW5ZB
VG17RwnJm8kCAwEAAaMXMBUwEwYDVR0lBAwwCgYIKwYBBQUHAwIwDQYJKoZIhvcN
AQEFBQADgYEAfuHbEePejnuh8e0oAoH3UB4Om6Kijbr+WEdOXEX06CerOC1divcu
/bm0AF5hSP7MYl+HjKhvwrZUYVPbdeEIRP2K3yT3f2Iv5TNrTvwGPm1JlRiwgvyC
dW9pj9QYyBHjX5vTGaWi1cTKxnkVyM5LidJMVnC6FsuoqIw8p/NKA2M=
-----END CERTIFICATE-----
