Certificate:
    Data:
        Version: 3 (0x2)
        Serial Number:
            fc:4e:e3:43:7c:f6:9d:dc
        Signature Algorithm: sha1WithRSAEncryption
        Issuer: C=US, ST=Florida, O=Internet Widgits Pty Ltd, CN=ca.local
        Validity
            Not Before: Jan 16 05:36:53 2014 GMT
            Not After : Jan 16 05:36:53 2015 GMT
        Subject: C=US, ST=Florida, O=Internet Widgits Pty Ltd, CN=client.local
        Subject Public Key Info:
            Public Key Algorithm: rsaEncryption
            RSA Public Key: (2048 bit)
                Modulus (2048 bit):
                    00:ee:d9:a8:4a:bc:cb:54:e6:20:9f:80:e5:1f:53:
                    f8:f9:12:56:b6:cd:b7:dc:00:c1:40:a0:0c:d5:10:
                    74:31:49:27:ed:20:97:41:17:99:53:d1:da:ef:c3:
                    25:f2:f7:db:d5:77:d2:00:88:d3:64:8a:ad:ce:f9:
                    fa:ad:ca:8d:d8:d3:9b:e2:52:a5:5b:1f:f0:dc:13:
                    6d:fa:ac:89:1f:42:f7:29:1f:33:28:dd:c0:ce:cd:
                    0e:92:79:9a:0c:cc:d3:77:de:88:56:a5:89:2c:5b:
                    89:bf:1d:98:60:04:f6:d9:49:dc:e4:d7:ad:e0:a0:
                    21:a3:64:61:55:4c:e9:6d:db:e9:aa:82:31:8e:0c:
                    8f:c7:fc:fa:19:d7:30:cf:7c:4a:4d:4d:86:14:8f:
                    ab:8d:a2:0e:9c:6c:e9:2d:28:72:37:9f:e7:d8:c0:
                    a4:45:30:16:41:d8:60:ca:a3:9e:fb:db:44:c9:68:
                    63:58:92:39:54:52:82:99:55:59:20:1a:47:83:86:
                    21:0d:27:e5:09:e0:f4:ac:6e:d0:1d:03:09:f3:07:
                    ea:b1:00:b0:2c:b3:2c:e0:86:66:31:45:eb:18:b4:
                    3e:ce:36:b3:12:41:48:be:43:61:98:e4:79:40:f4:
                    f5:a8:04:56:49:47:07:22:ad:f7:b8:06:cc:27:f5:
                    ec:67
                Exponent: 65537 (0x10001)
        X509v3 extensions:
            X509v3 Extended Key Usage: 
                TLS Web Client Authentication
    Signature Algorithm: sha1WithRSAEncryption
        6c:01:60:60:c8:e9:6d:30:84:84:19:c0:c1:74:07:c7:1a:a4:
        41:05:5a:8b:ce:31:16:23:c2:f8:0d:05:b4:92:27:42:5b:4f:
        84:b6:93:16:98:66:0c:68:2c:4f:5f:50:4b:8f:02:9d:df:7a:
        7f:59:55:b0:98:e3:08:f0:f8:ef:13:cc:12:56:2d:39:0d:22:
        8c:44:87:46:58:32:3f:d8:ce:3b:03:79:b4:59:06:45:8e:cd:
        6f:06:ef:f9:75:b8:d6:5f:45:10:d1:a6:e4:4a:d3:a4:14:db:
        2e:d3:0a:72:2f:3c:3f:6e:8a:30:09:6b:9a:69:f1:74:31:2a:
        87:d9
-----BEGIN CERTIFICATE-----
MIICxzCCAjCgAwIBAgIJAPxO40N89p3cMA0GCSqGSIb3DQEBBQUAMFUxCzAJBgNV
BAYTAlVTMRAwDgYDVQQIEwdGbG9yaWRhMSEwHwYDVQQKExhJbnRlcm5ldCBXaWRn
aXRzIFB0eSBMdGQxETAPBgNVBAMTCGNhLmxvY2FsMB4XDTE0MDExNjA1MzY1M1oX
DTE1MDExNjA1MzY1M1owWTELMAkGA1UEBhMCVVMxEDAOBgNVBAgTB0Zsb3JpZGEx
ITAfBgNVBAoTGEludGVybmV0IFdpZGdpdHMgUHR5IEx0ZDEVMBMGA1UEAxMMY2xp
ZW50LmxvY2FsMIIBIjANBgkqhkiG9w0BAQEFAAOCAQ8AMIIBCgKCAQEA7tmoSrzL
VOYgn4DlH1P4+RJWts233ADBQKAM1RB0MUkn7SCXQReZU9Ha78Ml8vfb1XfSAIjT
ZIqtzvn6rcqN2NOb4lKlWx/w3BNt+qyJH0L3KR8zKN3Azs0OknmaDMzTd96IVqWJ
LFuJvx2YYAT22Unc5Net4KAho2RhVUzpbdvpqoIxjgyPx/z6Gdcwz3xKTU2GFI+r
jaIOnGzpLShyN5/n2MCkRTAWQdhgyqOe+9tEyWhjWJI5VFKCmVVZIBpHg4YhDSfl
CeD0rG7QHQMJ8wfqsQCwLLMs4IZmMUXrGLQ+zjazEkFIvkNhmOR5QPT1qARWSUcH
Iq33uAbMJ/XsZwIDAQABoxcwFTATBgNVHSUEDDAKBggrBgEFBQcDAjANBgkqhkiG
9w0BAQUFAAOBgQBsAWBgyOltMISEGcDBdAfHGqRBBVqLzjEWI8L4DQW0kidCW0+E
tpMWmGYMaCxPX1BLjwKd33p/WVWwmOMI8PjvE8wSVi05DSKMRIdGWDI/2M47A3m0
WQZFjs1vBu/5dbjWX0UQ0abkStOkFNsu0wpyLzw/boowCWuaafF0MSqH2Q==
-----END CERTIFICATE-----
